target datalayout = "e-m:e-p270:32:32-p271:32:32-p272:64:64-i64:64-i128:128-f80:128-n8:16:32:64-S128"
target triple = "x86_64-pc-linux-gnu"

%"class.cv::detail::tracking::KuhnMunkres" = type <{ %"class.cv::Mat", %"class.cv::Mat", %"class.std::vector", %"class.std::vector.0", %"class.std::vector.0", i32, [4 x i8] }>
%"class.cv::Mat" = type { i32, i32, i32, i32, ptr, ptr, ptr, ptr, ptr, ptr, %"struct.cv::MatSize", %"struct.cv::MatStep" }
%"struct.cv::MatSize" = type { ptr }
%"struct.cv::MatStep" = type { ptr, [2 x i64] }
%"class.std::vector" = type { %"struct.std::_Vector_base" }
%"struct.std::_Vector_base" = type { %"struct.std::_Vector_base<cv::Point_<int>, std::allocator<cv::Point_<int>>>::_Vector_impl" }
%"struct.std::_Vector_base<cv::Point_<int>, std::allocator<cv::Point_<int>>>::_Vector_impl" = type { %"struct.std::_Vector_base<cv::Point_<int>, std::allocator<cv::Point_<int>>>::_Vector_impl_data" }
%"struct.std::_Vector_base<cv::Point_<int>, std::allocator<cv::Point_<int>>>::_Vector_impl_data" = type { ptr, ptr, ptr }
%"class.std::vector.0" = type { %"struct.std::_Vector_base.1" }
%"struct.std::_Vector_base.1" = type { %"struct.std::_Vector_base<int, std::allocator<int>>::_Vector_impl" }
%"struct.std::_Vector_base<int, std::allocator<int>>::_Vector_impl" = type { %"struct.std::_Vector_base<int, std::allocator<int>>::_Vector_impl_data" }
%"struct.std::_Vector_base<int, std::allocator<int>>::_Vector_impl_data" = type { ptr, ptr, ptr }

; Function Attrs: mustprogress nounwind uwtable
define linkonce_odr hidden noundef nonnull align 4 dereferenceable(4) ptr @_ZNSt6vectorIiSaIiEEixEm(ptr noundef nonnull align 8 dereferenceable(24) %0, i64 noundef %1) #4 comdat align 2 {
  %3 = alloca ptr, align 8
  %4 = alloca i64, align 8
  store ptr %0, ptr %3, align 8, !tbaa !30
  store i64 %1, ptr %4, align 8, !tbaa !40
  %5 = load ptr, ptr %3, align 8
  %6 = getelementptr inbounds nuw %"struct.std::_Vector_base.1", ptr %5, i32 0, i32 0
  %7 = getelementptr inbounds nuw %"struct.std::_Vector_base<int, std::allocator<int>>::_Vector_impl_data", ptr %6, i32 0, i32 0
  %8 = load ptr, ptr %7, align 8, !tbaa !75
  %9 = load i64, ptr %4, align 8, !tbaa !40
  %10 = getelementptr inbounds nuw i32, ptr %8, i64 %9
  ret ptr %10
}

; Function Attrs: inlinehint mustprogress nounwind uwtable
define linkonce_odr hidden noundef ptr @_ZN2cv3Mat3ptrIfEEPT_i(ptr noundef nonnull align 8 dereferenceable(96) %0, i32 noundef %1) #6 comdat align 2 {
  %3 = alloca ptr, align 8
  %4 = alloca i32, align 4
  store ptr %0, ptr %3, align 8, !tbaa !32
  store i32 %1, ptr %4, align 4, !tbaa !36
  %5 = load ptr, ptr %3, align 8
  %6 = getelementptr inbounds nuw %"class.cv::Mat", ptr %5, i32 0, i32 4
  %7 = load ptr, ptr %6, align 8, !tbaa !92
  %8 = getelementptr inbounds nuw %"class.cv::Mat", ptr %5, i32 0, i32 11
  %9 = getelementptr inbounds nuw %"struct.cv::MatStep", ptr %8, i32 0, i32 0
  %10 = load ptr, ptr %9, align 8, !tbaa !93
  %11 = getelementptr inbounds i64, ptr %10, i64 0
  %12 = load i64, ptr %11, align 8, !tbaa !40
  %13 = load i32, ptr %4, align 4, !tbaa !36
  %14 = sext i32 %13 to i64
  %15 = mul i64 %12, %14
  %16 = getelementptr inbounds nuw i8, ptr %7, i64 %15
  ret ptr %16
}

; Function Attrs: mustprogress uwtable
define hidden void @_ZN2cv6detail8tracking11KuhnMunkres25UpdateDissimilarityMatrixEf(ptr noundef nonnull align 8 dereferenceable(268) %0, float noundef %1) #5 align 2 {
  %3 = alloca ptr, align 8
  %4 = alloca float, align 4
  %5 = alloca i32, align 4
  %6 = alloca i32, align 4
  %7 = alloca ptr, align 8
  %8 = alloca i32, align 4
  store ptr %0, ptr %3, align 8, !tbaa !3
  store float %1, ptr %4, align 4, !tbaa !80
  %9 = load ptr, ptr %3, align 8
  call void @llvm.lifetime.start.p0(i64 4, ptr %5) #3
  store i32 0, ptr %5, align 4, !tbaa !36
  br label %10

10:                                               ; preds = %61, %2
  %11 = load i32, ptr %5, align 4, !tbaa !36
  %12 = getelementptr inbounds nuw %"class.cv::detail::tracking::KuhnMunkres", ptr %9, i32 0, i32 5
  %13 = load i32, ptr %12, align 8, !tbaa !8
  %14 = icmp slt i32 %11, %13
  br i1 %14, label %16, label %15

15:                                               ; preds = %10
  store i32 2, ptr %6, align 4
  call void @llvm.lifetime.end.p0(i64 4, ptr %5) #3
  br label %64

16:                                               ; preds = %10
  call void @llvm.lifetime.start.p0(i64 8, ptr %7) #3
  %17 = getelementptr inbounds nuw %"class.cv::detail::tracking::KuhnMunkres", ptr %9, i32 0, i32 0
  %18 = load i32, ptr %5, align 4, !tbaa !36
  %19 = call noundef ptr @_ZN2cv3Mat3ptrIfEEPT_i(ptr noundef nonnull align 8 dereferenceable(96) %17, i32 noundef %18)
  store ptr %19, ptr %7, align 8, !tbaa !97
  call void @llvm.lifetime.start.p0(i64 4, ptr %8) #3
  store i32 0, ptr %8, align 4, !tbaa !36
  br label %20

20:                                               ; preds = %57, %16
  %21 = load i32, ptr %8, align 4, !tbaa !36
  %22 = getelementptr inbounds nuw %"class.cv::detail::tracking::KuhnMunkres", ptr %9, i32 0, i32 5
  %23 = load i32, ptr %22, align 8, !tbaa !8
  %24 = icmp slt i32 %21, %23
  br i1 %24, label %26, label %25

25:                                               ; preds = %20
  store i32 5, ptr %6, align 4
  call void @llvm.lifetime.end.p0(i64 4, ptr %8) #3
  br label %60

26:                                               ; preds = %20
  %27 = getelementptr inbounds nuw %"class.cv::detail::tracking::KuhnMunkres", ptr %9, i32 0, i32 3
  %28 = load i32, ptr %5, align 4, !tbaa !36
  %29 = sext i32 %28 to i64
  %30 = call noundef nonnull align 4 dereferenceable(4) ptr @_ZNSt6vectorIiSaIiEEixEm(ptr noundef nonnull align 8 dereferenceable(24) %27, i64 noundef %29) #3
  %31 = load i32, ptr %30, align 4, !tbaa !36
  %32 = icmp ne i32 %31, 0
  br i1 %32, label %33, label %41

33:                                               ; preds = %26
  %34 = load float, ptr %4, align 4, !tbaa !80
  %35 = load ptr, ptr %7, align 8, !tbaa !97
  %36 = load i32, ptr %8, align 4, !tbaa !36
  %37 = sext i32 %36 to i64
  %38 = getelementptr inbounds float, ptr %35, i64 %37
  %39 = load float, ptr %38, align 4, !tbaa !80
  %40 = fadd float %39, %34
  store float %40, ptr %38, align 4, !tbaa !80
  br label %41

41:                                               ; preds = %33, %26
  %42 = getelementptr inbounds nuw %"class.cv::detail::tracking::KuhnMunkres", ptr %9, i32 0, i32 4
  %43 = load i32, ptr %8, align 4, !tbaa !36
  %44 = sext i32 %43 to i64
  %45 = call noundef nonnull align 4 dereferenceable(4) ptr @_ZNSt6vectorIiSaIiEEixEm(ptr noundef nonnull align 8 dereferenceable(24) %42, i64 noundef %44) #3
  %46 = load i32, ptr %45, align 4, !tbaa !36
  %47 = icmp ne i32 %46, 0
  br i1 %47, label %56, label %48

48:                                               ; preds = %41
  %49 = load float, ptr %4, align 4, !tbaa !80
  %50 = load ptr, ptr %7, align 8, !tbaa !97
  %51 = load i32, ptr %8, align 4, !tbaa !36
  %52 = sext i32 %51 to i64
  %53 = getelementptr inbounds float, ptr %50, i64 %52
  %54 = load float, ptr %53, align 4, !tbaa !80
  %55 = fsub float %54, %49
  store float %55, ptr %53, align 4, !tbaa !80
  br label %56

56:                                               ; preds = %48, %41
  br label %57

57:                                               ; preds = %56
  %58 = load i32, ptr %8, align 4, !tbaa !36
  %59 = add nsw i32 %58, 1
  store i32 %59, ptr %8, align 4, !tbaa !36
  br label %20, !llvm.loop !106

60:                                               ; preds = %25
  call void @llvm.lifetime.end.p0(i64 8, ptr %7) #3
  br label %61

61:                                               ; preds = %60
  %62 = load i32, ptr %5, align 4, !tbaa !36
  %63 = add nsw i32 %62, 1
  store i32 %63, ptr %5, align 4, !tbaa !36
  br label %10, !llvm.loop !107

64:                                               ; preds = %15
  ret void
}