; Function Attrs: mustprogress nofree norecurse nosync nounwind memory(readwrite, inaccessiblemem: none) uwtable
define hidden void @_ZN2cv6detail8tracking11KuhnMunkres25UpdateDissimilarityMatrixEf(ptr noundef nonnull readonly align 8 captures(none) dereferenceable(268) %0, float noundef %1) local_unnamed_addr #7 align 2 {
  %3 = getelementptr inbounds nuw i8, ptr %0, i64 264
  %4 = load i32, ptr %3, align 8, !tbaa !30
  %5 = icmp sgt i32 %4, 0
  br i1 %5, label %.lr.ph18, label %._crit_edge19

.lr.ph18:                                         ; preds = %2
  %6 = getelementptr inbounds nuw i8, ptr %0, i64 16
  %7 = load ptr, ptr %6, align 8, !tbaa !60
  %8 = getelementptr inbounds nuw i8, ptr %0, i64 72
  %9 = load ptr, ptr %8, align 8, !tbaa !61
  %10 = load i64, ptr %9, align 8, !tbaa !58
  %11 = getelementptr inbounds nuw i8, ptr %0, i64 216
  %12 = load ptr, ptr %11, align 8
  %13 = getelementptr inbounds nuw i8, ptr %0, i64 240
  %14 = load ptr, ptr %13, align 8
  %wide.trip.count34 = zext nneg i32 %4 to i64
  br label %.lr.ph.us

.lr.ph.us:                                        ; preds = %._crit_edge.us, %.lr.ph18
  %indvars.iv31 = phi i64 [ %indvars.iv.next32, %._crit_edge.us ], [ 0, %.lr.ph18 ]
  %15 = mul i64 %10, %indvars.iv31
  %16 = getelementptr inbounds nuw i8, ptr %7, i64 %15
  %17 = getelementptr inbounds nuw i32, ptr %12, i64 %indvars.iv31
  %18 = load i32, ptr %17, align 4, !tbaa !29
  %.not.us = icmp eq i32 %18, 0
  br i1 %.not.us, label %.lr.ph.split.us.us, label %.lr.ph.split.us23

.lr.ph.split.us23:                                ; preds = %.lr.ph.us, %26
  %indvars.iv = phi i64 [ %indvars.iv.next, %26 ], [ 0, %.lr.ph.us ]
  %19 = getelementptr inbounds nuw float, ptr %16, i64 %indvars.iv
  %20 = load float, ptr %19, align 4, !tbaa !71
  %21 = fadd float %1, %20
  store float %21, ptr %19, align 4, !tbaa !71
  %22 = getelementptr inbounds nuw i32, ptr %14, i64 %indvars.iv
  %23 = load i32, ptr %22, align 4, !tbaa !29
  %.not14.us21 = icmp eq i32 %23, 0
  br i1 %.not14.us21, label %24, label %26

24:                                               ; preds = %.lr.ph.split.us23
  %25 = fsub float %21, %1
  store float %25, ptr %19, align 4, !tbaa !71
  br label %26

26:                                               ; preds = %24, %.lr.ph.split.us23
  %indvars.iv.next = add nuw nsw i64 %indvars.iv, 1
  %exitcond.not = icmp eq i64 %indvars.iv.next, %wide.trip.count34
  br i1 %exitcond.not, label %._crit_edge.us, label %.lr.ph.split.us23, !llvm.loop !74

._crit_edge.us:                                   ; preds = %26, %33
  %indvars.iv.next32 = add nuw nsw i64 %indvars.iv31, 1
  %exitcond35.not = icmp eq i64 %indvars.iv.next32, %wide.trip.count34
  br i1 %exitcond35.not, label %._crit_edge19, label %.lr.ph.us, !llvm.loop !75

.lr.ph.split.us.us:                               ; preds = %.lr.ph.us, %33
  %indvars.iv26 = phi i64 [ %indvars.iv.next27, %33 ], [ 0, %.lr.ph.us ]
  %27 = getelementptr inbounds nuw i32, ptr %14, i64 %indvars.iv26
  %28 = load i32, ptr %27, align 4, !tbaa !29
  %.not14.us.us = icmp eq i32 %28, 0
  br i1 %.not14.us.us, label %29, label %33

29:                                               ; preds = %.lr.ph.split.us.us
  %30 = getelementptr inbounds nuw float, ptr %16, i64 %indvars.iv26
  %31 = load float, ptr %30, align 4, !tbaa !71
  %32 = fsub float %31, %1
  store float %32, ptr %30, align 4, !tbaa !71
  br label %33

33:                                               ; preds = %29, %.lr.ph.split.us.us
  %indvars.iv.next27 = add nuw nsw i64 %indvars.iv26, 1
  %exitcond30.not = icmp eq i64 %indvars.iv.next27, %wide.trip.count34
  br i1 %exitcond30.not, label %._crit_edge.us, label %.lr.ph.split.us.us, !llvm.loop !74

._crit_edge19:                                    ; preds = %._crit_edge.us, %2
  ret void
}